target datalayout = "e-m:e-p270:32:32-p271:32:32-p272:64:64-i64:64-i128:128-f80:128-n8:16:32:64-S128"
target triple = "x86_64-pc-linux-gnu"

%struct.dirent = type { i64, i64, i16, i8, [256 x i8] }

@SDL_classic_joysticks = internal global i8 0, align 1

; Function Attrs: nounwind uwtable
define internal i32 @sort_entries(ptr noundef %0, ptr noundef %1) #0 {
  %3 = alloca i32, align 4
  %4 = alloca ptr, align 8
  %5 = alloca ptr, align 8
  %6 = alloca ptr, align 8
  %7 = alloca ptr, align 8
  %8 = alloca i32, align 4
  %9 = alloca i32, align 4
  %10 = alloca i32, align 4
  %11 = alloca i32, align 4
  %12 = alloca i32, align 4
  %13 = alloca i32, align 4
  store ptr %0, ptr %4, align 8
  store ptr %1, ptr %5, align 8
  call void @llvm.lifetime.start.p0(i64 8, ptr %6) #11
  %14 = load ptr, ptr %4, align 8
  store ptr %14, ptr %6, align 8
  call void @llvm.lifetime.start.p0(i64 8, ptr %7) #11
  %15 = load ptr, ptr %5, align 8
  store ptr %15, ptr %7, align 8
  call void @llvm.lifetime.start.p0(i64 4, ptr %8) #11
  call void @llvm.lifetime.start.p0(i64 4, ptr %9) #11
  call void @llvm.lifetime.start.p0(i64 4, ptr %10) #11
  %16 = load i8, ptr @SDL_classic_joysticks, align 1, !range !5, !noundef !6
  %17 = trunc i8 %16 to i1
  br i1 %17, label %18, label %35

18:                                               ; preds = %2
  store i32 2, ptr %10, align 4
  %19 = load ptr, ptr %6, align 8
  %20 = load ptr, ptr %19, align 8
  %21 = getelementptr inbounds nuw %struct.dirent, ptr %20, i32 0, i32 4
  %22 = getelementptr inbounds [256 x i8], ptr %21, i64 0, i64 0
  %23 = load i32, ptr %10, align 4
  %24 = sext i32 %23 to i64
  %25 = getelementptr inbounds i8, ptr %22, i64 %24
  %26 = call i32 @SDL_atoi_REAL(ptr noundef %25)
  store i32 %26, ptr %8, align 4
  %27 = load ptr, ptr %7, align 8
  %28 = load ptr, ptr %27, align 8
  %29 = getelementptr inbounds nuw %struct.dirent, ptr %28, i32 0, i32 4
  %30 = getelementptr inbounds [256 x i8], ptr %29, i64 0, i64 0
  %31 = load i32, ptr %10, align 4
  %32 = sext i32 %31 to i64
  %33 = getelementptr inbounds i8, ptr %30, i64 %32
  %34 = call i32 @SDL_atoi_REAL(ptr noundef %33)
  store i32 %34, ptr %9, align 4
  br label %78

35:                                               ; preds = %2
  store i32 5, ptr %10, align 4
  %36 = load ptr, ptr %6, align 8
  %37 = load ptr, ptr %36, align 8
  %38 = getelementptr inbounds nuw %struct.dirent, ptr %37, i32 0, i32 4
  %39 = getelementptr inbounds [256 x i8], ptr %38, i64 0, i64 0
  %40 = load i32, ptr %10, align 4
  %41 = sext i32 %40 to i64
  %42 = getelementptr inbounds i8, ptr %39, i64 %41
  %43 = call i32 @SDL_atoi_REAL(ptr noundef %42)
  store i32 %43, ptr %8, align 4
  %44 = load ptr, ptr %7, align 8
  %45 = load ptr, ptr %44, align 8
  %46 = getelementptr inbounds nuw %struct.dirent, ptr %45, i32 0, i32 4
  %47 = getelementptr inbounds [256 x i8], ptr %46, i64 0, i64 0
  %48 = load i32, ptr %10, align 4
  %49 = sext i32 %48 to i64
  %50 = getelementptr inbounds i8, ptr %47, i64 %49
  %51 = call i32 @SDL_atoi_REAL(ptr noundef %50)
  store i32 %51, ptr %9, align 4
  call void @llvm.lifetime.start.p0(i64 4, ptr %11) #11
  %52 = load i32, ptr %8, align 4
  %53 = call i32 @get_event_joystick_index(i32 noundef %52)
  store i32 %53, ptr %11, align 4
  call void @llvm.lifetime.start.p0(i64 4, ptr %12) #11
  %54 = load i32, ptr %9, align 4
  %55 = call i32 @get_event_joystick_index(i32 noundef %54)
  store i32 %55, ptr %12, align 4
  %56 = load i32, ptr %11, align 4
  %57 = icmp sge i32 %56, 0
  br i1 %57, label %58, label %64

58:                                               ; preds = %35
  %59 = load i32, ptr %12, align 4
  %60 = icmp sge i32 %59, 0
  br i1 %60, label %61, label %64

61:                                               ; preds = %58
  %62 = load i32, ptr %11, align 4
  store i32 %62, ptr %8, align 4
  %63 = load i32, ptr %12, align 4
  store i32 %63, ptr %9, align 4
  br label %74

64:                                               ; preds = %58, %35
  %65 = load i32, ptr %11, align 4
  %66 = icmp sge i32 %65, 0
  br i1 %66, label %67, label %68

67:                                               ; preds = %64
  store i32 -1, ptr %3, align 4
  store i32 1, ptr %13, align 4
  br label %75

68:                                               ; preds = %64
  %69 = load i32, ptr %12, align 4
  %70 = icmp sge i32 %69, 0
  br i1 %70, label %71, label %72

71:                                               ; preds = %68
  store i32 1, ptr %3, align 4
  store i32 1, ptr %13, align 4
  br label %75

72:                                               ; preds = %68
  br label %73

73:                                               ; preds = %72
  br label %74

74:                                               ; preds = %73, %61
  store i32 0, ptr %13, align 4
  br label %75

75:                                               ; preds = %74, %71, %67
  call void @llvm.lifetime.end.p0(i64 4, ptr %12) #11
  call void @llvm.lifetime.end.p0(i64 4, ptr %11) #11
  %76 = load i32, ptr %13, align 4
  switch i32 %76, label %82 [
    i32 0, label %77
  ]

77:                                               ; preds = %75
  br label %78

78:                                               ; preds = %77, %18
  %79 = load i32, ptr %8, align 4
  %80 = load i32, ptr %9, align 4
  %81 = sub nsw i32 %79, %80
  store i32 %81, ptr %3, align 4
  store i32 1, ptr %13, align 4
  br label %82

82:                                               ; preds = %78, %75
  call void @llvm.lifetime.end.p0(i64 4, ptr %10) #11
  call void @llvm.lifetime.end.p0(i64 4, ptr %9) #11
  call void @llvm.lifetime.end.p0(i64 4, ptr %8) #11
  call void @llvm.lifetime.end.p0(i64 8, ptr %7) #11
  call void @llvm.lifetime.end.p0(i64 8, ptr %6) #11
  %83 = load i32, ptr %3, align 4
  ret i32 %83
}