; Function Attrs: nounwind uwtable
define internal i32 @sort_entries(ptr noundef readonly captures(none) %0, ptr noundef readonly captures(none) %1) #0 {
  %3 = load i8, ptr @SDL_classic_joysticks, align 1, !range !5, !noundef !6
  %4 = trunc nuw i8 %3 to i1
  %5 = load ptr, ptr %0, align 8
  br i1 %4, label %6, label %12

6:                                                ; preds = %2
  %7 = getelementptr inbounds nuw i8, ptr %5, i64 21
  %8 = tail call i32 @SDL_atoi_REAL(ptr noundef nonnull %7) #18
  %9 = load ptr, ptr %1, align 8
  %10 = getelementptr inbounds nuw i8, ptr %9, i64 21
  %11 = tail call i32 @SDL_atoi_REAL(ptr noundef nonnull %10) #18
  br label %.thread

12:                                               ; preds = %2
  %13 = getelementptr inbounds nuw i8, ptr %5, i64 24
  %14 = tail call i32 @SDL_atoi_REAL(ptr noundef nonnull %13) #18
  %15 = load ptr, ptr %1, align 8
  %16 = getelementptr inbounds nuw i8, ptr %15, i64 24
  %17 = tail call i32 @SDL_atoi_REAL(ptr noundef nonnull %16) #18
  %18 = tail call fastcc i32 @get_event_joystick_index(i32 noundef %14)
  %19 = tail call fastcc i32 @get_event_joystick_index(i32 noundef %17)
  %20 = icmp sgt i32 %18, -1
  %21 = icmp sgt i32 %19, -1
  %or.cond = select i1 %20, i1 %21, i1 false
  br i1 %or.cond, label %.thread, label %22

22:                                               ; preds = %12
  %brmerge = select i1 %20, i1 true, i1 %21
  %.mux = select i1 %20, i32 -1, i32 1
  br i1 %brmerge, label %.thread35, label %.thread

.thread:                                          ; preds = %22, %12, %6
  %.025 = phi i32 [ %11, %6 ], [ %19, %12 ], [ %17, %22 ]
  %.023 = phi i32 [ %8, %6 ], [ %18, %12 ], [ %14, %22 ]
  %23 = sub nsw i32 %.023, %.025
  br label %.thread35

.thread35:                                        ; preds = %22, %.thread
  %.1 = phi i32 [ %23, %.thread ], [ %.mux, %22 ]
  ret i32 %.1
}